target datalayout = "e-m:e-p270:32:32-p271:32:32-p272:64:64-i64:64-i128:128-f80:128-n8:16:32:64-S128"
target triple = "x86_64-pc-linux-gnu"

%struct.psa_key_attributes_s = type { %struct.psa_core_key_attributes_t, ptr, i64 }
%struct.psa_core_key_attributes_t = type { i16, i16, i32, i32, %struct.psa_key_policy_s, i16 }
%struct.psa_key_policy_s = type { i32, i32, i32 }

; Function Attrs: nounwind uwtable
define hidden i32 @psa_driver_wrapper_aead_decrypt(ptr noundef %0, ptr noundef %1, i64 noundef %2, i32 noundef %3, ptr noundef %4, i64 noundef %5, ptr noundef %6, i64 noundef %7, ptr noundef %8, i64 noundef %9, ptr noundef %10, i64 noundef %11, ptr noundef %12) #0 {
  %14 = alloca i32, align 4
  %15 = alloca ptr, align 8
  %16 = alloca ptr, align 8
  %17 = alloca i64, align 8
  %18 = alloca i32, align 4
  %19 = alloca ptr, align 8
  %20 = alloca i64, align 8
  %21 = alloca ptr, align 8
  %22 = alloca i64, align 8
  %23 = alloca ptr, align 8
  %24 = alloca i64, align 8
  %25 = alloca ptr, align 8
  %26 = alloca i64, align 8
  %27 = alloca ptr, align 8
  %28 = alloca i32, align 4
  %29 = alloca i32, align 4
  store ptr %0, ptr %15, align 8
  store ptr %1, ptr %16, align 8
  store i64 %2, ptr %17, align 8
  store i32 %3, ptr %18, align 4
  store ptr %4, ptr %19, align 8
  store i64 %5, ptr %20, align 8
  store ptr %6, ptr %21, align 8
  store i64 %7, ptr %22, align 8
  store ptr %8, ptr %23, align 8
  store i64 %9, ptr %24, align 8
  store ptr %10, ptr %25, align 8
  store i64 %11, ptr %26, align 8
  store ptr %12, ptr %27, align 8
  store i32 -151, ptr %28, align 4
  %30 = load ptr, ptr %15, align 8
  %31 = getelementptr inbounds %struct.psa_key_attributes_s, ptr %30, i32 0, i32 0
  %32 = getelementptr inbounds %struct.psa_core_key_attributes_t, ptr %31, i32 0, i32 2
  %33 = load i32, ptr %32, align 4
  %34 = lshr i32 %33, 8
  store i32 %34, ptr %29, align 4
  %35 = load i32, ptr %29, align 4
  switch i32 %35, label %51 [
    i32 0, label %36
  ]

36:                                               ; preds = %13
  %37 = load ptr, ptr %15, align 8
  %38 = load ptr, ptr %16, align 8
  %39 = load i64, ptr %17, align 8
  %40 = load i32, ptr %18, align 4
  %41 = load ptr, ptr %19, align 8
  %42 = load i64, ptr %20, align 8
  %43 = load ptr, ptr %21, align 8
  %44 = load i64, ptr %22, align 8
  %45 = load ptr, ptr %23, align 8
  %46 = load i64, ptr %24, align 8
  %47 = load ptr, ptr %25, align 8
  %48 = load i64, ptr %26, align 8
  %49 = load ptr, ptr %27, align 8
  %50 = call i32 @mbedtls_psa_aead_decrypt(ptr noundef %37, ptr noundef %38, i64 noundef %39, i32 noundef %40, ptr noundef %41, i64 noundef %42, ptr noundef %43, i64 noundef %44, ptr noundef %45, i64 noundef %46, ptr noundef %47, i64 noundef %48, ptr noundef %49)
  store i32 %50, ptr %14, align 4
  br label %52

51:                                               ; preds = %13
  store i32 -135, ptr %14, align 4
  br label %52

52:                                               ; preds = %51, %36
  %53 = load i32, ptr %14, align 4
  ret i32 %53
}