; Function Attrs: nounwind uwtable
define hidden i32 @psa_driver_wrapper_aead_decrypt(ptr noundef %0, ptr noundef %1, i64 noundef %2, i32 noundef %3, ptr noundef %4, i64 noundef %5, ptr noundef %6, i64 noundef %7, ptr noundef %8, i64 noundef %9, ptr noundef %10, i64 noundef %11, ptr noundef %12) local_unnamed_addr #1 {
  %14 = getelementptr inbounds nuw i8, ptr %0, i64 4
  %15 = load i32, ptr %14, align 4
  %cond = icmp ult i32 %15, 256
  br i1 %cond, label %16, label %18

16:                                               ; preds = %13
  %17 = tail call i32 @mbedtls_psa_aead_decrypt(ptr noundef nonnull %0, ptr noundef %1, i64 noundef %2, i32 noundef %3, ptr noundef %4, i64 noundef %5, ptr noundef %6, i64 noundef %7, ptr noundef %8, i64 noundef %9, ptr noundef %10, i64 noundef %11, ptr noundef %12) #5
  br label %18

18:                                               ; preds = %13, %16
  %.0 = phi i32 [ %17, %16 ], [ -135, %13 ]
  ret i32 %.0
}